target datalayout = "e-m:e-p270:32:32-p271:32:32-p272:64:64-i64:64-i128:128-f80:128-n8:16:32:64-S128"
target triple = "x86_64-pc-linux-gnu"

%struct.H5FL_reg_head_t = type { i8, i32, i32, ptr, i64, ptr }
%struct.H5B2_hdr_t = type { %struct.H5C_cache_entry_t, %struct.H5B2_node_ptr_t, i8, i8, i32, i32, i16, i8, ptr, i64, i64, i64, i64, i8, i8, i8, ptr, ptr, ptr, ptr, ptr, ptr, ptr, i8, ptr, ptr, i64, ptr, ptr }
%struct.H5C_cache_entry_t = type { ptr, i64, i64, ptr, i8, ptr, i8, i8, i8, i8, i32, i8, i8, i8, i8, i8, i32, ptr, i32, i32, i32, i32, i32, i8, i8, ptr, ptr, ptr, ptr, ptr, ptr, i8, i32, i8, i64, ptr, i64, i64, i32, i8, i32, i32, i8, ptr, ptr, ptr }
%struct.H5B2_node_ptr_t = type { i64, i16, i64 }

@.str.1 = private unnamed_addr constant [101 x i8] c"generated/home/dtcxzyw/WorkSpace/Projects/compilers/llvm-opt-benchmark/bench/hdf5/hdf5/src/H5B2hdr.c\00", align 1
@H5E_BTREE_g = external global i64, align 8
@H5_H5B2_hdr_t_reg_free_list = internal global %struct.H5FL_reg_head_t { i8 0, i32 0, i32 0, ptr @.str.30, i64 440, ptr null }, align 8
@__func__.H5B2__hdr_alloc = private unnamed_addr constant [16 x i8] c"H5B2__hdr_alloc\00", align 1
@H5E_CANTALLOC_g = external global i64, align 8
@.str.7 = private unnamed_addr constant [43 x i8] c"memory allocation failed for B-tree header\00", align 1

; Function Attrs: nounwind uwtable
define ptr @H5B2__hdr_alloc(ptr noundef %0) #0 {
  %2 = alloca ptr, align 8
  %3 = alloca ptr, align 8
  %4 = alloca ptr, align 8
  %5 = alloca i8, align 1
  store ptr %0, ptr %2, align 8
  store ptr null, ptr %3, align 8
  store ptr null, ptr %4, align 8
  store i8 0, ptr %5, align 1
  %6 = call noalias ptr @H5FL_reg_calloc(ptr noundef @H5_H5B2_hdr_t_reg_free_list)
  store ptr %6, ptr %3, align 8
  %7 = icmp eq ptr null, %6
  br i1 %7, label %8, label %23

8:                                                ; preds = %1
  br label %9

9:                                                ; preds = %8
  br label %10

10:                                               ; preds = %9
  br label %11

11:                                               ; preds = %10
  %12 = load i64, ptr @H5E_BTREE_g, align 8
  %13 = load i64, ptr @H5E_CANTALLOC_g, align 8
  %14 = call i32 (ptr, ptr, i32, i64, i64, ptr, ...) @H5E_printf_stack(ptr noundef @.str.1, ptr noundef @__func__.H5B2__hdr_alloc, i32 noundef 238, i64 noundef %12, i64 noundef %13, ptr noundef @.str.7)
  br label %15

15:                                               ; preds = %11
  store i8 1, ptr %5, align 1
  %16 = load i8, ptr %5, align 1
  %17 = trunc i8 %16 to i1
  %18 = zext i1 %17 to i8
  store i8 %18, ptr %5, align 1
  br label %19

19:                                               ; preds = %15
  br label %20

20:                                               ; preds = %19
  store ptr null, ptr %4, align 8
  br label %53

21:                                               ; No predecessors!
  br label %22

22:                                               ; preds = %21
  br label %23

23:                                               ; preds = %22, %1
  %24 = load ptr, ptr %2, align 8
  %25 = load ptr, ptr %3, align 8
  %26 = getelementptr inbounds %struct.H5B2_hdr_t, ptr %25, i32 0, i32 8
  store ptr %24, ptr %26, align 8
  %27 = load ptr, ptr %2, align 8
  %28 = call zeroext i8 @H5F_sizeof_addr(ptr noundef %27)
  %29 = load ptr, ptr %3, align 8
  %30 = getelementptr inbounds %struct.H5B2_hdr_t, ptr %29, i32 0, i32 15
  store i8 %28, ptr %30, align 2
  %31 = load ptr, ptr %2, align 8
  %32 = call zeroext i8 @H5F_sizeof_size(ptr noundef %31)
  %33 = load ptr, ptr %3, align 8
  %34 = getelementptr inbounds %struct.H5B2_hdr_t, ptr %33, i32 0, i32 14
  store i8 %32, ptr %34, align 1
  %35 = load ptr, ptr %3, align 8
  %36 = getelementptr inbounds %struct.H5B2_hdr_t, ptr %35, i32 0, i32 15
  %37 = load i8, ptr %36, align 2
  %38 = zext i8 %37 to i32
  %39 = add i32 %38, 2
  %40 = load ptr, ptr %3, align 8
  %41 = getelementptr inbounds %struct.H5B2_hdr_t, ptr %40, i32 0, i32 14
  %42 = load i8, ptr %41, align 1
  %43 = zext i8 %42 to i32
  %44 = add i32 %39, %43
  %45 = add i32 20, %44
  %46 = zext i32 %45 to i64
  %47 = load ptr, ptr %3, align 8
  %48 = getelementptr inbounds %struct.H5B2_hdr_t, ptr %47, i32 0, i32 10
  store i64 %46, ptr %48, align 8
  %49 = load ptr, ptr %3, align 8
  %50 = getelementptr inbounds %struct.H5B2_hdr_t, ptr %49, i32 0, i32 1
  %51 = getelementptr inbounds %struct.H5B2_node_ptr_t, ptr %50, i32 0, i32 0
  store i64 -1, ptr %51, align 8
  %52 = load ptr, ptr %3, align 8
  store ptr %52, ptr %4, align 8
  br label %53

53:                                               ; preds = %23, %20
  %54 = load ptr, ptr %4, align 8
  ret ptr %54
}