; Function Attrs: nounwind uwtable
define noalias ptr @H5B2__hdr_alloc(ptr noundef %0) local_unnamed_addr #0 {
  %2 = tail call noalias ptr @H5FL_reg_calloc(ptr noundef nonnull @H5_H5B2_hdr_t_reg_free_list) #4
  %3 = icmp eq ptr %2, null
  br i1 %3, label %4, label %8

4:                                                ; preds = %1
  %5 = load i64, ptr @H5E_BTREE_g, align 8
  %6 = load i64, ptr @H5E_CANTALLOC_g, align 8
  %7 = tail call i32 (ptr, ptr, i32, i64, i64, ptr, ...) @H5E_printf_stack(ptr noundef nonnull @.str.1, ptr noundef nonnull @__func__.H5B2__hdr_alloc, i32 noundef 238, i64 noundef %5, i64 noundef %6, ptr noundef nonnull @.str.7) #4
  br label %20

8:                                                ; preds = %1
  %9 = getelementptr inbounds i8, ptr %2, i64 288
  store ptr %0, ptr %9, align 8
  %10 = tail call zeroext i8 @H5F_sizeof_addr(ptr noundef %0) #4
  %11 = getelementptr inbounds i8, ptr %2, i64 330
  store i8 %10, ptr %11, align 2
  %12 = tail call zeroext i8 @H5F_sizeof_size(ptr noundef %0) #4
  %13 = getelementptr inbounds i8, ptr %2, i64 329
  store i8 %12, ptr %13, align 1
  %14 = zext i8 %10 to i64
  %15 = zext i8 %12 to i64
  %16 = add nuw nsw i64 %14, 22
  %17 = add nuw nsw i64 %16, %15
  %18 = getelementptr inbounds i8, ptr %2, i64 304
  store i64 %17, ptr %18, align 8
  %19 = getelementptr inbounds i8, ptr %2, i64 248
  store i64 -1, ptr %19, align 8
  br label %20

20:                                               ; preds = %8, %4
  ret ptr %2
}